; Function Attrs: nounwind uwtable
define internal fastcc ptr @d2i_PUBKEY_int(ptr noundef captures(address_is_null) %0, ptr noundef captures(none) %1, i64 noundef %2, ptr noundef %3, ptr noundef %4, i32 noundef range(i32 0, 2) %5) unnamed_addr #0 {
  %7 = alloca ptr, align 8
  %8 = alloca ptr, align 8
  call void @llvm.lifetime.start.p0(i64 8, ptr nonnull %7) #9
  store ptr null, ptr %7, align 8, !tbaa !3
  call void @llvm.lifetime.start.p0(i64 8, ptr nonnull %8) #9
  %9 = load ptr, ptr %1, align 8, !tbaa !46
  store ptr %9, ptr %8, align 8, !tbaa !46
  %10 = icmp ne ptr %3, null
  %11 = icmp ne ptr %4, null
  %or.cond = or i1 %10, %11
  %12 = icmp ne i32 %5, 0
  %or.cond3 = or i1 %or.cond, %12
  br i1 %or.cond3, label %13, label %28

13:                                               ; preds = %6
  %14 = tail call noalias ptr @CRYPTO_zalloc(i64 noundef 48, ptr noundef nonnull @.str, i32 noundef 507) #9
  store ptr %14, ptr %7, align 8, !tbaa !3
  %15 = icmp eq ptr %14, null
  br i1 %15, label %39, label %16

16:                                               ; preds = %13
  %17 = getelementptr inbounds nuw i8, ptr %14, i64 24
  store ptr %3, ptr %17, align 8, !tbaa !8
  %18 = getelementptr inbounds nuw i8, ptr %14, i64 32
  %19 = load ptr, ptr %18, align 8, !tbaa !16
  tail call void @CRYPTO_free(ptr noundef %19, ptr noundef nonnull @.str, i32 noundef 52) #9
  store ptr null, ptr %18, align 8, !tbaa !16
  %.not11.i = icmp eq ptr %4, null
  br i1 %.not11.i, label %x509_pubkey_set0_libctx.exit, label %20

20:                                               ; preds = %16
  %21 = tail call noalias ptr @CRYPTO_strdup(ptr noundef nonnull %4, ptr noundef nonnull @.str, i32 noundef 55) #9
  store ptr %21, ptr %18, align 8, !tbaa !16
  %22 = icmp eq ptr %21, null
  br i1 %22, label %x509_pubkey_set0_libctx.exit.thread, label %x509_pubkey_set0_libctx.exit

x509_pubkey_set0_libctx.exit:                     ; preds = %20, %16
  %23 = getelementptr inbounds nuw i8, ptr %14, i64 40
  %24 = trunc nuw nsw i32 %5 to i8
  %25 = load i8, ptr %23, align 8
  %26 = and i8 %25, -2
  %27 = or disjoint i8 %26, %24
  store i8 %27, ptr %23, align 8
  br label %28

28:                                               ; preds = %6, %x509_pubkey_set0_libctx.exit
  %.023 = phi ptr [ %7, %x509_pubkey_set0_libctx.exit ], [ null, %6 ]
  %29 = call ptr @ASN1_item_d2i(ptr noundef %.023, ptr noundef nonnull %8, i64 noundef %2, ptr noundef nonnull @X509_PUBKEY_it.local_it) #9
  %30 = icmp eq ptr %29, null
  br i1 %30, label %x509_pubkey_set0_libctx.exit.thread, label %31

31:                                               ; preds = %28
  %32 = call ptr @X509_PUBKEY_get(ptr noundef nonnull %29)
  call void @ASN1_item_free(ptr noundef nonnull %29, ptr noundef nonnull @X509_PUBKEY_it.local_it) #9
  store ptr null, ptr %7, align 8, !tbaa !3
  %33 = icmp eq ptr %32, null
  br i1 %33, label %x509_pubkey_set0_libctx.exit.thread, label %34

34:                                               ; preds = %31
  %35 = load ptr, ptr %8, align 8, !tbaa !46
  store ptr %35, ptr %1, align 8, !tbaa !46
  %.not29 = icmp eq ptr %0, null
  br i1 %.not29, label %x509_pubkey_set0_libctx.exit.thread, label %36

36:                                               ; preds = %34
  %37 = load ptr, ptr %0, align 8, !tbaa !43
  call void @EVP_PKEY_free(ptr noundef %37) #9
  store ptr %32, ptr %0, align 8, !tbaa !43
  br label %x509_pubkey_set0_libctx.exit.thread

x509_pubkey_set0_libctx.exit.thread:              ; preds = %20, %34, %36, %31, %28
  %.0 = phi ptr [ null, %28 ], [ null, %31 ], [ %32, %36 ], [ %32, %34 ], [ null, %20 ]
  %38 = load ptr, ptr %7, align 8, !tbaa !3
  call void @ASN1_item_free(ptr noundef %38, ptr noundef nonnull @X509_PUBKEY_it.local_it) #9
  br label %39

39:                                               ; preds = %13, %x509_pubkey_set0_libctx.exit.thread
  %.024 = phi ptr [ %.0, %x509_pubkey_set0_libctx.exit.thread ], [ null, %13 ]
  call void @llvm.lifetime.end.p0(i64 8, ptr nonnull %8) #9
  call void @llvm.lifetime.end.p0(i64 8, ptr nonnull %7) #9
  ret ptr %.024
}